target datalayout = "e-m:e-p270:32:32-p271:32:32-p272:64:64-i64:64-i128:128-f80:128-n8:16:32:64-S128"
target triple = "x86_64-pc-linux-gnu"

%struct.pw_cb_data = type { ptr, ptr }

@.str.1 = private unnamed_addr constant [12 x i8] c"pass phrase\00", align 1

; Function Attrs: nounwind uwtable
define internal ptr @ui_prompt_construct(ptr noundef %0, ptr noundef %1, ptr noundef %2) #0 {
  %4 = alloca ptr, align 8
  %5 = alloca ptr, align 8
  %6 = alloca ptr, align 8
  %7 = alloca ptr, align 8
  store ptr %0, ptr %4, align 8, !tbaa !9
  store ptr %1, ptr %5, align 8, !tbaa !17
  store ptr %2, ptr %6, align 8, !tbaa !17
  call void @llvm.lifetime.start.p0(i64 8, ptr %7) #5
  %8 = load ptr, ptr %4, align 8, !tbaa !9
  %9 = call ptr @UI_get0_user_data(ptr noundef %8)
  store ptr %9, ptr %7, align 8, !tbaa !18
  %10 = load ptr, ptr %5, align 8, !tbaa !17
  %11 = icmp eq ptr %10, null
  br i1 %11, label %12, label %13

12:                                               ; preds = %3
  store ptr @.str.1, ptr %5, align 8, !tbaa !17
  br label %13

13:                                               ; preds = %12, %3
  %14 = load ptr, ptr %6, align 8, !tbaa !17
  %15 = icmp eq ptr %14, null
  br i1 %15, label %16, label %23

16:                                               ; preds = %13
  %17 = load ptr, ptr %7, align 8, !tbaa !18
  %18 = icmp ne ptr %17, null
  br i1 %18, label %19, label %23

19:                                               ; preds = %16
  %20 = load ptr, ptr %7, align 8, !tbaa !18
  %21 = getelementptr inbounds nuw %struct.pw_cb_data, ptr %20, i32 0, i32 1
  %22 = load ptr, ptr %21, align 8, !tbaa !20
  store ptr %22, ptr %6, align 8, !tbaa !17
  br label %23

23:                                               ; preds = %19, %16, %13
  %24 = load ptr, ptr %5, align 8, !tbaa !17
  %25 = load ptr, ptr %6, align 8, !tbaa !17
  %26 = call ptr @UI_construct_prompt(ptr noundef null, ptr noundef %24, ptr noundef %25)
  call void @llvm.lifetime.end.p0(i64 8, ptr %7) #5
  ret ptr %26
}