; Function Attrs: nounwind uwtable
define internal ptr @ui_prompt_construct(ptr noundef %0, ptr noundef %1, ptr noundef %2) #0 {
  %4 = tail call ptr @UI_get0_user_data(ptr noundef %0) #5
  %5 = icmp eq ptr %2, null
  %6 = icmp ne ptr %4, null
  %or.cond = select i1 %5, i1 %6, i1 false
  br i1 %or.cond, label %7, label %10

7:                                                ; preds = %3
  %8 = getelementptr inbounds nuw i8, ptr %4, i64 8
  %9 = load ptr, ptr %8, align 8, !tbaa !12
  br label %10

10:                                               ; preds = %7, %3
  %.0 = phi ptr [ %9, %7 ], [ %2, %3 ]
  %11 = icmp eq ptr %1, null
  %spec.store.select = select i1 %11, ptr @.str.1, ptr %1
  %12 = tail call ptr @UI_construct_prompt(ptr noundef null, ptr noundef nonnull %spec.store.select, ptr noundef %.0) #5
  ret ptr %12
}